target datalayout = "e-m:e-p270:32:32-p271:32:32-p272:64:64-i64:64-i128:128-f80:128-n8:16:32:64-S128"
target triple = "x86_64-pc-linux-gnu"

%struct.quicklist = type { ptr, ptr, i64, i64, i64, [0 x %struct.quicklistBookmark] }
%struct.quicklistBookmark = type { ptr, ptr }
%struct.quicklistNode = type { ptr, ptr, ptr, i64, i32 }
%struct.quicklistLZF = type { i64, [0 x i8] }

@.str.7 = private unnamed_addr constant [15 x i8] c"{count : %ld}\0A\00", align 1
@.str.8 = private unnamed_addr constant [13 x i8] c"{len : %ld}\0A\00", align 1
@.str.9 = private unnamed_addr constant [13 x i8] c"{fill : %d}\0A\00", align 1
@.str.10 = private unnamed_addr constant [17 x i8] c"{compress : %d}\0A\00", align 1
@.str.11 = private unnamed_addr constant [23 x i8] c"{bookmark_count : %d}\0A\00", align 1
@.str.12 = private unnamed_addr constant [21 x i8] c"{quicklist node(%d)\0A\00", align 1
@.str.13 = private unnamed_addr constant [94 x i8] c"{container : %s, encoding: %s, size: %zu, count: %d, recompress: %d, attempted_compress: %d}\0A\00", align 1
@.str.14 = private unnamed_addr constant [6 x i8] c"PLAIN\00", align 1
@.str.15 = private unnamed_addr constant [7 x i8] c"PACKED\00", align 1
@.str.16 = private unnamed_addr constant [4 x i8] c"RAW\00", align 1
@.str.17 = private unnamed_addr constant [4 x i8] c"LZF\00", align 1
@.str.18 = private unnamed_addr constant [13 x i8] c"{ listpack:\0A\00", align 1
@.str.19 = private unnamed_addr constant [3 x i8] c"}\0A\00", align 1
@.str.20 = private unnamed_addr constant [16 x i8] c"{ entry : %s }\0A\00", align 1

; Function Attrs: nounwind uwtable
define dso_local i32 @__quicklistDecompressNode(ptr noundef %0) #0 {
  %2 = alloca i32, align 4
  %3 = alloca ptr, align 8
  %4 = alloca ptr, align 8
  %5 = alloca ptr, align 8
  %6 = alloca i32, align 4
  store ptr %0, ptr %3, align 8, !tbaa !12
  %7 = load ptr, ptr %3, align 8, !tbaa !12
  %8 = getelementptr inbounds nuw %struct.quicklistNode, ptr %7, i32 0, i32 4
  %9 = load i32, ptr %8, align 8
  %10 = and i32 %9, -1048577
  %11 = or i32 %10, 0
  store i32 %11, ptr %8, align 8
  call void @llvm.lifetime.start.p0(i64 8, ptr %4) #10
  %12 = load ptr, ptr %3, align 8, !tbaa !12
  %13 = getelementptr inbounds nuw %struct.quicklistNode, ptr %12, i32 0, i32 3
  %14 = load i64, ptr %13, align 8, !tbaa !19
  %15 = call noalias ptr @zmalloc(i64 noundef %14) #11
  store ptr %15, ptr %4, align 8, !tbaa !29
  call void @llvm.lifetime.start.p0(i64 8, ptr %5) #10
  %16 = load ptr, ptr %3, align 8, !tbaa !12
  %17 = getelementptr inbounds nuw %struct.quicklistNode, ptr %16, i32 0, i32 2
  %18 = load ptr, ptr %17, align 8, !tbaa !16
  store ptr %18, ptr %5, align 8, !tbaa !27
  %19 = load ptr, ptr %5, align 8, !tbaa !27
  %20 = getelementptr inbounds nuw %struct.quicklistLZF, ptr %19, i32 0, i32 1
  %21 = getelementptr inbounds [0 x i8], ptr %20, i64 0, i64 0
  %22 = load ptr, ptr %5, align 8, !tbaa !27
  %23 = getelementptr inbounds nuw %struct.quicklistLZF, ptr %22, i32 0, i32 0
  %24 = load i64, ptr %23, align 8, !tbaa !5
  %25 = load ptr, ptr %4, align 8, !tbaa !29
  %26 = load ptr, ptr %3, align 8, !tbaa !12
  %27 = getelementptr inbounds nuw %struct.quicklistNode, ptr %26, i32 0, i32 3
  %28 = load i64, ptr %27, align 8, !tbaa !19
  %29 = call i64 @lzf_decompress(ptr noundef %21, i64 noundef %24, ptr noundef %25, i64 noundef %28)
  %30 = icmp eq i64 %29, 0
  br i1 %30, label %31, label %33

31:                                               ; preds = %1
  %32 = load ptr, ptr %4, align 8, !tbaa !29
  call void @zfree(ptr noundef %32)
  store i32 0, ptr %2, align 4
  store i32 1, ptr %6, align 4
  br label %43

33:                                               ; preds = %1
  %34 = load ptr, ptr %5, align 8, !tbaa !27
  call void @zfree(ptr noundef %34)
  %35 = load ptr, ptr %4, align 8, !tbaa !29
  %36 = load ptr, ptr %3, align 8, !tbaa !12
  %37 = getelementptr inbounds nuw %struct.quicklistNode, ptr %36, i32 0, i32 2
  store ptr %35, ptr %37, align 8, !tbaa !16
  %38 = load ptr, ptr %3, align 8, !tbaa !12
  %39 = getelementptr inbounds nuw %struct.quicklistNode, ptr %38, i32 0, i32 4
  %40 = load i32, ptr %39, align 8
  %41 = and i32 %40, -196609
  %42 = or i32 %41, 65536
  store i32 %42, ptr %39, align 8
  store i32 1, ptr %2, align 4
  store i32 1, ptr %6, align 4
  br label %43

43:                                               ; preds = %33, %31
  call void @llvm.lifetime.end.p0(i64 8, ptr %5) #10
  call void @llvm.lifetime.end.p0(i64 8, ptr %4) #10
  %44 = load i32, ptr %2, align 4
  ret i32 %44
}

; Function Attrs: nounwind uwtable
define dso_local void @quicklistRepr(ptr noundef %0, i32 noundef %1) #0 {
  %3 = alloca ptr, align 8
  %4 = alloca i32, align 4
  %5 = alloca i32, align 4
  %6 = alloca ptr, align 8
  %7 = alloca ptr, align 8
  store ptr %0, ptr %3, align 8, !tbaa !35
  store i32 %1, ptr %4, align 4, !tbaa !14
  call void @llvm.lifetime.start.p0(i64 4, ptr %5) #10
  store i32 0, ptr %5, align 4, !tbaa !14
  call void @llvm.lifetime.start.p0(i64 8, ptr %6) #10
  %8 = load ptr, ptr %3, align 8, !tbaa !35
  store ptr %8, ptr %6, align 8, !tbaa !9
  %9 = load ptr, ptr %6, align 8, !tbaa !9
  %10 = getelementptr inbounds nuw %struct.quicklist, ptr %9, i32 0, i32 2
  %11 = load i64, ptr %10, align 8, !tbaa !5
  %12 = call i32 (ptr, ...) @printf(ptr noundef @.str.7, i64 noundef %11)
  %13 = load ptr, ptr %6, align 8, !tbaa !9
  %14 = getelementptr inbounds nuw %struct.quicklist, ptr %13, i32 0, i32 3
  %15 = load i64, ptr %14, align 8, !tbaa !5
  %16 = call i32 (ptr, ...) @printf(ptr noundef @.str.8, i64 noundef %15)
  %17 = load ptr, ptr %6, align 8, !tbaa !9
  %18 = getelementptr inbounds nuw %struct.quicklist, ptr %17, i32 0, i32 4
  %19 = load i64, ptr %18, align 8
  %20 = shl i64 %19, 48
  %21 = ashr i64 %20, 48
  %22 = trunc i64 %21 to i32
  %23 = call i32 (ptr, ...) @printf(ptr noundef @.str.9, i32 noundef %22)
  %24 = load ptr, ptr %6, align 8, !tbaa !9
  %25 = getelementptr inbounds nuw %struct.quicklist, ptr %24, i32 0, i32 4
  %26 = load i64, ptr %25, align 8
  %27 = lshr i64 %26, 16
  %28 = and i64 %27, 65535
  %29 = trunc i64 %28 to i32
  %30 = call i32 (ptr, ...) @printf(ptr noundef @.str.10, i32 noundef %29)
  %31 = load ptr, ptr %6, align 8, !tbaa !9
  %32 = getelementptr inbounds nuw %struct.quicklist, ptr %31, i32 0, i32 4
  %33 = load i64, ptr %32, align 8
  %34 = lshr i64 %33, 32
  %35 = and i64 %34, 15
  %36 = trunc i64 %35 to i32
  %37 = call i32 (ptr, ...) @printf(ptr noundef @.str.11, i32 noundef %36)
  call void @llvm.lifetime.start.p0(i64 8, ptr %7) #10
  %38 = load ptr, ptr %6, align 8, !tbaa !9
  %39 = getelementptr inbounds nuw %struct.quicklist, ptr %38, i32 0, i32 0
  %40 = load ptr, ptr %39, align 8, !tbaa !12
  store ptr %40, ptr %7, align 8, !tbaa !12
  br label %41

41:                                               ; preds = %153, %2
  %42 = load ptr, ptr %7, align 8, !tbaa !12
  %43 = icmp ne ptr %42, null
  br i1 %43, label %44, label %157

44:                                               ; preds = %41
  %45 = load i32, ptr %5, align 4, !tbaa !14
  %46 = add nsw i32 %45, 1
  store i32 %46, ptr %5, align 4, !tbaa !14
  %47 = call i32 (ptr, ...) @printf(ptr noundef @.str.12, i32 noundef %45)
  %48 = load ptr, ptr %7, align 8, !tbaa !12
  %49 = getelementptr inbounds nuw %struct.quicklistNode, ptr %48, i32 0, i32 4
  %50 = load i32, ptr %49, align 8
  %51 = lshr i32 %50, 18
  %52 = and i32 %51, 3
  %53 = icmp eq i32 %52, 1
  %54 = select i1 %53, ptr @.str.14, ptr @.str.15
  %55 = load ptr, ptr %7, align 8, !tbaa !12
  %56 = getelementptr inbounds nuw %struct.quicklistNode, ptr %55, i32 0, i32 4
  %57 = load i32, ptr %56, align 8
  %58 = lshr i32 %57, 16
  %59 = and i32 %58, 3
  %60 = icmp eq i32 %59, 1
  %61 = select i1 %60, ptr @.str.16, ptr @.str.17
  %62 = load ptr, ptr %7, align 8, !tbaa !12
  %63 = getelementptr inbounds nuw %struct.quicklistNode, ptr %62, i32 0, i32 3
  %64 = load i64, ptr %63, align 8, !tbaa !19
  %65 = load ptr, ptr %7, align 8, !tbaa !12
  %66 = getelementptr inbounds nuw %struct.quicklistNode, ptr %65, i32 0, i32 4
  %67 = load i32, ptr %66, align 8
  %68 = and i32 %67, 65535
  %69 = load ptr, ptr %7, align 8, !tbaa !12
  %70 = getelementptr inbounds nuw %struct.quicklistNode, ptr %69, i32 0, i32 4
  %71 = load i32, ptr %70, align 8
  %72 = lshr i32 %71, 20
  %73 = and i32 %72, 1
  %74 = load ptr, ptr %7, align 8, !tbaa !12
  %75 = getelementptr inbounds nuw %struct.quicklistNode, ptr %74, i32 0, i32 4
  %76 = load i32, ptr %75, align 8
  %77 = lshr i32 %76, 21
  %78 = and i32 %77, 1
  %79 = call i32 (ptr, ...) @printf(ptr noundef @.str.13, ptr noundef %54, ptr noundef %61, i64 noundef %64, i32 noundef %68, i32 noundef %73, i32 noundef %78)
  %80 = load i32, ptr %4, align 4, !tbaa !14
  %81 = icmp ne i32 %80, 0
  br i1 %81, label %82, label %153

82:                                               ; preds = %44
  br label %83

83:                                               ; preds = %82
  %84 = load ptr, ptr %7, align 8, !tbaa !12
  %85 = icmp ne ptr %84, null
  br i1 %85, label %86, label %96

86:                                               ; preds = %83
  %87 = load ptr, ptr %7, align 8, !tbaa !12
  %88 = getelementptr inbounds nuw %struct.quicklistNode, ptr %87, i32 0, i32 4
  %89 = load i32, ptr %88, align 8
  %90 = lshr i32 %89, 16
  %91 = and i32 %90, 3
  %92 = icmp eq i32 %91, 2
  br i1 %92, label %93, label %96

93:                                               ; preds = %86
  %94 = load ptr, ptr %7, align 8, !tbaa !12
  %95 = call i32 @__quicklistDecompressNode(ptr noundef %94)
  br label %96

96:                                               ; preds = %93, %86, %83
  br label %97

97:                                               ; preds = %96
  br label %98

98:                                               ; preds = %97
  %99 = load ptr, ptr %7, align 8, !tbaa !12
  %100 = getelementptr inbounds nuw %struct.quicklistNode, ptr %99, i32 0, i32 4
  %101 = load i32, ptr %100, align 8
  %102 = lshr i32 %101, 18
  %103 = and i32 %102, 3
  %104 = icmp eq i32 %103, 2
  br i1 %104, label %105, label %111

105:                                              ; preds = %98
  %106 = call i32 (ptr, ...) @printf(ptr noundef @.str.18)
  %107 = load ptr, ptr %7, align 8, !tbaa !12
  %108 = getelementptr inbounds nuw %struct.quicklistNode, ptr %107, i32 0, i32 2
  %109 = load ptr, ptr %108, align 8, !tbaa !16
  call void @lpRepr(ptr noundef %109)
  %110 = call i32 (ptr, ...) @printf(ptr noundef @.str.19)
  br label %124

111:                                              ; preds = %98
  %112 = load ptr, ptr %7, align 8, !tbaa !12
  %113 = getelementptr inbounds nuw %struct.quicklistNode, ptr %112, i32 0, i32 4
  %114 = load i32, ptr %113, align 8
  %115 = lshr i32 %114, 18
  %116 = and i32 %115, 3
  %117 = icmp eq i32 %116, 1
  br i1 %117, label %118, label %123

118:                                              ; preds = %111
  %119 = load ptr, ptr %7, align 8, !tbaa !12
  %120 = getelementptr inbounds nuw %struct.quicklistNode, ptr %119, i32 0, i32 2
  %121 = load ptr, ptr %120, align 8, !tbaa !16
  %122 = call i32 (ptr, ...) @printf(ptr noundef @.str.20, ptr noundef %121)
  br label %123

123:                                              ; preds = %118, %111
  br label %124

124:                                              ; preds = %123, %105
  %125 = call i32 (ptr, ...) @printf(ptr noundef @.str.19)
  br label %126

126:                                              ; preds = %124
  %127 = load ptr, ptr %7, align 8, !tbaa !12
  %128 = getelementptr inbounds nuw %struct.quicklistNode, ptr %127, i32 0, i32 4
  %129 = load i32, ptr %128, align 8
  %130 = lshr i32 %129, 20
  %131 = and i32 %130, 1
  %132 = icmp ne i32 %131, 0
  br i1 %132, label %133, label %150

133:                                              ; preds = %126
  br label %134

134:                                              ; preds = %133
  %135 = load ptr, ptr %7, align 8, !tbaa !12
  %136 = icmp ne ptr %135, null
  br i1 %136, label %137, label %147

137:                                              ; preds = %134
  %138 = load ptr, ptr %7, align 8, !tbaa !12
  %139 = getelementptr inbounds nuw %struct.quicklistNode, ptr %138, i32 0, i32 4
  %140 = load i32, ptr %139, align 8
  %141 = lshr i32 %140, 16
  %142 = and i32 %141, 3
  %143 = icmp eq i32 %142, 1
  br i1 %143, label %144, label %147

144:                                              ; preds = %137
  %145 = load ptr, ptr %7, align 8, !tbaa !12
  %146 = call i32 @__quicklistCompressNode(ptr noundef %145)
  br label %147

147:                                              ; preds = %144, %137, %134
  br label %148

148:                                              ; preds = %147
  br label %149

149:                                              ; preds = %148
  br label %150

150:                                              ; preds = %149, %126
  br label %151

151:                                              ; preds = %150
  br label %152

152:                                              ; preds = %151
  br label %153

153:                                              ; preds = %152, %44
  %154 = load ptr, ptr %7, align 8, !tbaa !12
  %155 = getelementptr inbounds nuw %struct.quicklistNode, ptr %154, i32 0, i32 1
  %156 = load ptr, ptr %155, align 8, !tbaa !21
  store ptr %156, ptr %7, align 8, !tbaa !12
  br label %41, !llvm.loop !67

157:                                              ; preds = %41
  call void @llvm.lifetime.end.p0(i64 8, ptr %7) #10
  call void @llvm.lifetime.end.p0(i64 8, ptr %6) #10
  call void @llvm.lifetime.end.p0(i64 4, ptr %5) #10
  ret void
}