; Function Attrs: nounwind uwtable
define dso_local void @quicklistRepr(ptr noundef readonly captures(none) %0, i32 noundef %1) local_unnamed_addr #1 {
  %3 = getelementptr inbounds nuw i8, ptr %0, i64 16
  %4 = load i64, ptr %3, align 8, !tbaa !5
  %5 = tail call i32 (ptr, ...) @printf(ptr noundef nonnull dereferenceable(1) @.str.7, i64 noundef %4)
  %6 = getelementptr inbounds nuw i8, ptr %0, i64 24
  %7 = load i64, ptr %6, align 8, !tbaa !5
  %8 = tail call i32 (ptr, ...) @printf(ptr noundef nonnull dereferenceable(1) @.str.8, i64 noundef %7)
  %9 = getelementptr inbounds nuw i8, ptr %0, i64 32
  %10 = load i64, ptr %9, align 8
  %11 = shl i64 %10, 48
  %12 = ashr exact i64 %11, 48
  %13 = trunc nsw i64 %12 to i32
  %14 = tail call i32 (ptr, ...) @printf(ptr noundef nonnull dereferenceable(1) @.str.9, i32 noundef %13)
  %15 = load i64, ptr %9, align 8
  %16 = trunc i64 %15 to i32
  %17 = lshr i32 %16, 16
  %18 = tail call i32 (ptr, ...) @printf(ptr noundef nonnull dereferenceable(1) @.str.10, i32 noundef %17)
  %19 = load i64, ptr %9, align 8
  %20 = lshr i64 %19, 32
  %21 = trunc nuw i64 %20 to i32
  %22 = and i32 %21, 15
  %23 = tail call i32 (ptr, ...) @printf(ptr noundef nonnull dereferenceable(1) @.str.11, i32 noundef %22)
  %.035 = load ptr, ptr %0, align 8, !tbaa !16
  %.not36 = icmp eq ptr %.035, null
  br i1 %.not36, label %._crit_edge, label %.lr.ph

.lr.ph:                                           ; preds = %2
  %.not30 = icmp eq i32 %1, 0
  br i1 %.not30, label %.lr.ph.split.us, label %.lr.ph.split

.lr.ph.split.us:                                  ; preds = %.lr.ph, %.lr.ph.split.us
  %.038.us = phi ptr [ %.0.us, %.lr.ph.split.us ], [ %.035, %.lr.ph ]
  %.02837.us = phi i32 [ %24, %.lr.ph.split.us ], [ 0, %.lr.ph ]
  %24 = add nuw nsw i32 %.02837.us, 1
  %25 = tail call i32 (ptr, ...) @printf(ptr noundef nonnull dereferenceable(1) @.str.12, i32 noundef %.02837.us)
  %26 = getelementptr inbounds nuw i8, ptr %.038.us, i64 32
  %27 = load i32, ptr %26, align 8
  %28 = and i32 %27, 786432
  %29 = icmp eq i32 %28, 262144
  %30 = select i1 %29, ptr @.str.14, ptr @.str.15
  %31 = and i32 %27, 196608
  %32 = icmp eq i32 %31, 65536
  %33 = select i1 %32, ptr @.str.16, ptr @.str.17
  %34 = getelementptr inbounds nuw i8, ptr %.038.us, i64 24
  %35 = load i64, ptr %34, align 8, !tbaa !15
  %36 = and i32 %27, 65535
  %37 = lshr i32 %27, 20
  %38 = and i32 %37, 1
  %39 = lshr i32 %27, 21
  %40 = and i32 %39, 1
  %41 = tail call i32 (ptr, ...) @printf(ptr noundef nonnull dereferenceable(1) @.str.13, ptr noundef nonnull %30, ptr noundef nonnull %33, i64 noundef %35, i32 noundef %36, i32 noundef %38, i32 noundef %40)
  %42 = getelementptr inbounds nuw i8, ptr %.038.us, i64 8
  %.0.us = load ptr, ptr %42, align 8, !tbaa !16
  %.not.us = icmp eq ptr %.0.us, null
  br i1 %.not.us, label %._crit_edge, label %.lr.ph.split.us, !llvm.loop !56

.lr.ph.split:                                     ; preds = %.lr.ph, %95
  %.038 = phi ptr [ %.0, %95 ], [ %.035, %.lr.ph ]
  %.02837 = phi i32 [ %43, %95 ], [ 0, %.lr.ph ]
  %43 = add nuw nsw i32 %.02837, 1
  %44 = tail call i32 (ptr, ...) @printf(ptr noundef nonnull dereferenceable(1) @.str.12, i32 noundef %.02837)
  %45 = getelementptr inbounds nuw i8, ptr %.038, i64 32
  %46 = load i32, ptr %45, align 8
  %47 = and i32 %46, 786432
  %48 = icmp eq i32 %47, 262144
  %49 = select i1 %48, ptr @.str.14, ptr @.str.15
  %50 = and i32 %46, 196608
  %51 = icmp eq i32 %50, 65536
  %52 = select i1 %51, ptr @.str.16, ptr @.str.17
  %53 = getelementptr inbounds nuw i8, ptr %.038, i64 24
  %54 = load i64, ptr %53, align 8, !tbaa !15
  %55 = and i32 %46, 65535
  %56 = lshr i32 %46, 20
  %57 = and i32 %56, 1
  %58 = lshr i32 %46, 21
  %59 = and i32 %58, 1
  %60 = tail call i32 (ptr, ...) @printf(ptr noundef nonnull dereferenceable(1) @.str.13, ptr noundef nonnull %49, ptr noundef nonnull %52, i64 noundef %54, i32 noundef %55, i32 noundef %57, i32 noundef %59)
  %61 = load i32, ptr %45, align 8
  %62 = and i32 %61, 196608
  %63 = icmp eq i32 %62, 131072
  br i1 %63, label %64, label %__quicklistDecompressNode.exit

64:                                               ; preds = %.lr.ph.split
  %65 = and i32 %61, -1114113
  store i32 %65, ptr %45, align 8
  %66 = load i64, ptr %53, align 8, !tbaa !15
  %67 = tail call noalias ptr @zmalloc(i64 noundef %66) #22
  %68 = getelementptr inbounds nuw i8, ptr %.038, i64 16
  %69 = load ptr, ptr %68, align 8, !tbaa !9
  %70 = getelementptr inbounds nuw i8, ptr %69, i64 8
  %71 = load i64, ptr %69, align 8, !tbaa !5
  %72 = load i64, ptr %53, align 8, !tbaa !15
  %73 = tail call i64 @lzf_decompress(ptr noundef nonnull %70, i64 noundef %71, ptr noundef %67, i64 noundef %72) #23
  %74 = icmp eq i64 %73, 0
  br i1 %74, label %75, label %76

75:                                               ; preds = %64
  tail call void @zfree(ptr noundef %67) #23
  %.pre = load i32, ptr %45, align 8
  br label %__quicklistDecompressNode.exit

76:                                               ; preds = %64
  tail call void @zfree(ptr noundef nonnull %69) #23
  store ptr %67, ptr %68, align 8, !tbaa !9
  %77 = load i32, ptr %45, align 8
  %78 = and i32 %77, -196609
  %79 = or disjoint i32 %78, 65536
  store i32 %79, ptr %45, align 8
  br label %__quicklistDecompressNode.exit

__quicklistDecompressNode.exit:                   ; preds = %76, %75, %.lr.ph.split
  %80 = phi i32 [ %79, %76 ], [ %.pre, %75 ], [ %61, %.lr.ph.split ]
  %81 = lshr i32 %80, 18
  %82 = and i32 %81, 3
  switch i32 %82, label %90 [
    i32 2, label %83
    i32 1, label %86
  ]

83:                                               ; preds = %__quicklistDecompressNode.exit
  %puts = tail call i32 @puts(ptr nonnull dereferenceable(1) @str)
  %84 = getelementptr inbounds nuw i8, ptr %.038, i64 16
  %85 = load ptr, ptr %84, align 8, !tbaa !9
  tail call void @lpRepr(ptr noundef %85) #23
  %puts31 = tail call i32 @puts(ptr nonnull dereferenceable(1) @str.2)
  br label %90

86:                                               ; preds = %__quicklistDecompressNode.exit
  %87 = getelementptr inbounds nuw i8, ptr %.038, i64 16
  %88 = load ptr, ptr %87, align 8, !tbaa !9
  %89 = tail call i32 (ptr, ...) @printf(ptr noundef nonnull dereferenceable(1) @.str.20, ptr noundef %88)
  br label %90

90:                                               ; preds = %__quicklistDecompressNode.exit, %86, %83
  %puts32 = tail call i32 @puts(ptr nonnull dereferenceable(1) @str.2)
  %91 = load i32, ptr %45, align 8
  %92 = and i32 %91, 1245184
  %or.cond = icmp eq i32 %92, 1114112
  br i1 %or.cond, label %93, label %95

93:                                               ; preds = %90
  %94 = tail call i32 @__quicklistCompressNode(ptr noundef nonnull %.038)
  br label %95

95:                                               ; preds = %90, %93
  %96 = getelementptr inbounds nuw i8, ptr %.038, i64 8
  %.0 = load ptr, ptr %96, align 8, !tbaa !16
  %.not = icmp eq ptr %.0, null
  br i1 %.not, label %._crit_edge, label %.lr.ph.split, !llvm.loop !56

._crit_edge:                                      ; preds = %95, %.lr.ph.split.us, %2
  ret void
}